Certificate:
    Data:
        Version: 3 (0x2)
        Serial Number:
            1a:93:5f:a8:ab:a8:c0:13:ef:c9:14:e0:01:10:e4:a2
        Signature Algorithm: sha256WithRSAEncryption
        Issuer: CN=Root-CA
        Validity
            Not Before: Jul 23 21:56:47 2026 GMT
            Not After : Oct 25 21:56:47 2028 GMT
        Subject: CN=charlie
        Subject Public Key Info:
            Public Key Algorithm: rsaEncryption
                Public-Key: (2048 bit)
                Modulus:
                    00:cd:eb:90:1e:a9:f7:7e:a3:70:e7:d7:ce:1a:30:
                    6b:3d:5a:2d:56:21:a1:73:9b:98:33:3e:15:58:4a:
                    a3:66:7b:1b:cb:15:3c:bb:2b:61:45:12:64:3a:18:
                    f6:e4:ce:42:2c:df:07:74:4a:cb:d3:de:75:89:f4:
                    4c:90:22:6e:a1:37:1b:ae:a8:f4:30:66:09:5a:6a:
                    f7:55:4b:ad:ca:e8:e6:ab:4c:e9:c5:b2:84:42:4b:
                    39:b6:57:20:4d:23:00:47:03:93:8e:16:98:97:e5:
                    05:e3:5e:ea:38:15:8f:56:13:ad:97:11:2f:ae:23:
                    4d:58:3a:6c:fb:11:8d:5a:b9:f2:36:2c:44:60:b3:
                    d0:45:ed:f2:f0:1f:f5:13:3e:64:7c:05:76:d9:7d:
                    86:1b:8b:11:e4:e0:a0:da:a9:d8:af:c2:60:ad:06:
                    53:44:29:5c:1c:68:40:4c:81:9f:0a:00:38:04:e3:
                    a8:7e:cd:67:a8:cc:21:6e:e8:b1:47:85:29:1f:c1:
                    f6:ba:59:4d:4e:e7:26:29:c8:81:49:50:75:12:ff:
                    d1:b8:bd:35:68:38:8b:1e:52:c9:2f:99:a4:2b:95:
                    e9:a2:02:82:40:4c:cf:0a:25:2b:a3:e9:59:f0:a4:
                    34:ab:2f:dd:a1:54:f7:c7:7c:ed:5b:58:44:bc:3f:
                    b8:95
                Exponent: 65537 (0x10001)
        X509v3 extensions:
            X509v3 Basic Constraints: 
                CA:FALSE
            X509v3 Subject Key Identifier: 
                B7:3A:D3:2A:DC:FC:46:C5:8C:A6:78:BF:6B:5B:29:5D:32:94:B4:66
            X509v3 Authority Key Identifier: 
                keyid:A6:E0:D1:A3:34:C0:68:61:8C:8B:94:C0:90:28:7D:AE:98:D8:5B:8B
                DirName:/CN=Root-CA
                serial:1A:83:2E:68:46:43:2B:03:72:8A:94:0B:3A:D6:0B:0F:85:AA:3A:21
            X509v3 Extended Key Usage: 
                TLS Web Client Authentication
            X509v3 Key Usage: 
                Digital Signature
    Signature Algorithm: sha256WithRSAEncryption
    Signature Value:
        0e:ac:43:39:eb:8b:32:0f:f8:8d:46:02:d3:05:d8:5a:95:73:
        63:6b:93:c5:f4:c4:72:77:40:73:4b:7c:10:28:76:00:0e:e9:
        78:c3:52:4b:b1:b5:d4:f0:99:0a:01:72:d5:5a:2d:f3:74:dd:
        e4:fb:4f:98:a6:b9:ea:17:39:2a:a6:31:7a:7c:67:14:10:62:
        a4:82:3a:78:95:22:3b:41:5a:5c:7f:bd:cd:fa:32:7c:f1:c9:
        af:b0:71:48:2e:2e:f9:f2:4a:ae:c7:df:a6:89:6b:c1:0e:0d:
        81:8c:25:94:14:45:b8:a7:cb:20:c4:dc:8d:d6:57:7f:3b:b2:
        68:98:dc:82:62:20:bc:d8:bb:60:67:00:35:c0:00:fa:a4:38:
        a8:f8:b2:7e:bb:d9:12:03:9e:39:cf:40:9d:77:d0:e8:96:76:
        ec:4f:d5:c4:e0:f9:77:1e:30:ef:9c:33:b3:92:04:ef:f0:c3:
        4a:98:68:4e:af:bb:0f:39:b9:84:d0:cf:ec:4f:9a:a0:7c:94:
        7e:07:93:fb:a5:63:40:96:13:08:f2:57:e3:30:8a:98:a8:c6:
        ba:d7:44:79:d7:35:3b:ea:37:2c:14:0d:fd:96:da:0d:e2:81:
        a2:0b:e5:6a:13:41:91:2e:e3:4b:ba:23:c1:1c:db:28:66:d8:
        df:cd:48:3a
-----BEGIN CERTIFICATE-----
MIIDTTCCAjWgAwIBAgIQGpNfqKuowBPvyRTgARDkojANBgkqhkiG9w0BAQsFADAS
MRAwDgYDVQQDDAdSb290LUNBMB4XDTI2MDcyMzIxNTY0N1oXDTI4MTAyNTIxNTY0
N1owEjEQMA4GA1UEAwwHY2hhcmxpZTCCASIwDQYJKoZIhvcNAQEBBQADggEPADCC
AQoCggEBAM3rkB6p936jcOfXzhowaz1aLVYhoXObmDM+FVhKo2Z7G8sVPLsrYUUS
ZDoY9uTOQizfB3RKy9PedYn0TJAibqE3G66o9DBmCVpq91VLrcro5qtM6cWyhEJL
ObZXIE0jAEcDk44WmJflBeNe6jgVj1YTrZcRL64jTVg6bPsRjVq58jYsRGCz0EXt
8vAf9RM+ZHwFdtl9hhuLEeTgoNqp2K/CYK0GU0QpXBxoQEyBnwoAOATjqH7NZ6jM
IW7osUeFKR/B9rpZTU7nJinIgUlQdRL/0bi9NWg4ix5SyS+ZpCuV6aICgkBMzwol
K6PpWfCkNKsv3aFU98d87VtYRLw/uJUCAwEAAaOBnjCBmzAJBgNVHRMEAjAAMB0G
A1UdDgQWBBS3OtMq3PxGxYymeL9rWyldMpS0ZjBNBgNVHSMERjBEgBSm4NGjNMBo
YYyLlMCQKH2umNhbi6EWpBQwEjEQMA4GA1UEAwwHUm9vdC1DQYIUGoMuaEZDKwNy
ipQLOtYLD4WqOiEwEwYDVR0lBAwwCgYIKwYBBQUHAwIwCwYDVR0PBAQDAgeAMA0G
CSqGSIb3DQEBCwUAA4IBAQAOrEM564syD/iNRgLTBdhalXNja5PF9MRyd0BzS3wQ
KHYADul4w1JLsbXU8JkKAXLVWi3zdN3k+0+YprnqFzkqpjF6fGcUEGKkgjp4lSI7
QVpcf73N+jJ88cmvsHFILi758kqux9+miWvBDg2BjCWUFEW4p8sgxNyN1ld/O7Jo
mNyCYiC82LtgZwA1wAD6pDio+LJ+u9kSA545z0Cdd9DolnbsT9XE4Pl3HjDvnDOz
kgTv8MNKmGhOr7sPObmE0M/sT5qgfJR+B5P7pWNAlhMI8lfjMIqYqMa610R51zU7
6jcsFA39ltoN4oGiC+VqE0GRLuNLuiPBHNsoZtjfzUg6
-----END CERTIFICATE-----
