Certificate:
    Data:
        Version: 3 (0x2)
        Serial Number:
            75:80:49:37:5b:91:0f:07:5c:aa:95:14:9c:be:8c:64
        Signature Algorithm: sha256WithRSAEncryption
        Issuer: CN=Root-CA
        Validity
            Not Before: Jul 22 23:23:04 2026 GMT
            Not After : Oct 24 23:23:04 2028 GMT
        Subject: CN=radius-server
        Subject Public Key Info:
            Public Key Algorithm: rsaEncryption
                Public-Key: (2048 bit)
                Modulus:
                    00:e6:d4:5e:0e:a5:4e:9a:4b:22:39:7f:9b:70:91:
                    98:e9:2d:f8:ce:4d:71:4a:c1:0e:9e:53:e3:37:7a:
                    02:77:c7:94:60:3a:9c:40:f7:6f:bf:4e:23:12:ae:
                    46:86:4e:a6:bf:9b:5b:9b:4e:2b:9a:06:ca:df:12:
                    8c:16:69:aa:c5:54:7b:e6:b2:26:c4:11:f3:a7:e1:
                    61:a1:8e:11:70:76:6c:e7:68:9e:f5:a7:e8:7d:89:
                    38:a1:ac:84:66:18:35:eb:ab:10:5a:c7:e9:a5:03:
                    b1:ee:34:8c:ef:da:5d:7f:25:7c:19:93:2f:56:a6:
                    e6:6d:9c:08:2d:8b:04:59:29:ee:85:8b:f0:85:e4:
                    82:0a:e1:cb:5f:69:be:95:d6:b7:d0:aa:53:3a:20:
                    ab:c4:ec:f3:18:fd:7d:a4:22:b0:88:77:69:71:99:
                    a1:2e:d9:55:65:69:d1:26:88:a5:ce:36:a9:d0:67:
                    65:f7:7e:93:18:a1:4b:ee:bf:9d:d8:d2:cd:88:1d:
                    46:de:c0:82:a7:09:f1:1c:a5:d9:be:c5:f9:80:98:
                    81:c8:d2:be:63:5e:19:23:55:b3:1a:c0:38:6e:a7:
                    30:ac:ad:1d:b2:fa:46:3a:69:a0:6f:de:8f:4d:6a:
                    6b:59:ce:e4:09:6a:c7:2a:1a:37:cd:1b:8e:88:f3:
                    6c:21
                Exponent: 65537 (0x10001)
        X509v3 extensions:
            X509v3 Basic Constraints: 
                CA:FALSE
            X509v3 Subject Key Identifier: 
                21:23:8D:3B:B5:A4:6E:2C:8A:90:53:A9:EB:EE:F7:3A:B5:3C:70:90
            X509v3 Authority Key Identifier: 
                keyid:A6:E0:D1:A3:34:C0:68:61:8C:8B:94:C0:90:28:7D:AE:98:D8:5B:8B
                DirName:/CN=Root-CA
                serial:1A:83:2E:68:46:43:2B:03:72:8A:94:0B:3A:D6:0B:0F:85:AA:3A:21
            X509v3 Extended Key Usage: 
                TLS Web Server Authentication
            X509v3 Key Usage: 
                Digital Signature, Key Encipherment
            X509v3 Subject Alternative Name: 
                DNS:radius-server
    Signature Algorithm: sha256WithRSAEncryption
    Signature Value:
        5c:a0:88:97:dd:2a:33:0f:e6:6c:4d:fd:85:be:eb:b6:b8:6b:
        95:26:b8:ff:4f:20:d1:36:63:2e:58:92:eb:5b:e9:a0:4e:38:
        57:6b:b5:05:03:9f:16:6c:f9:38:46:b0:43:37:f0:d0:ff:6f:
        7f:eb:9d:82:c7:af:24:fd:2a:2b:e6:b9:5b:e7:6d:30:f2:38:
        cb:c5:e3:a0:84:a5:18:5c:de:10:bd:90:2c:72:e8:6d:75:83:
        fa:a4:84:de:5b:2e:65:fb:2d:16:eb:bd:2b:1c:7c:55:43:b5:
        69:a4:ae:e5:f1:30:65:69:e9:f3:03:84:8a:03:5a:0d:17:70:
        af:10:62:51:59:23:4b:8e:77:cf:ff:ed:68:43:90:62:32:b2:
        b5:31:36:ea:86:b6:ac:d9:bf:6e:cf:17:a4:ac:39:bd:b2:49:
        c1:20:47:af:06:f0:59:d0:4f:f2:ff:4b:2d:2a:6a:ea:c3:36:
        9c:c3:d2:d8:6b:e4:dc:06:0f:35:7b:a4:a3:1d:c5:db:b5:66:
        e7:93:8c:c7:53:50:92:ee:02:1c:67:ac:15:e6:31:87:bb:0a:
        36:45:b2:33:e4:88:fa:43:ad:5b:93:57:93:42:2f:d3:ef:36:
        83:3f:ad:3f:2f:56:e1:a3:52:66:0c:1f:fd:7a:01:fd:29:57:
        5f:43:d2:3a
-----BEGIN CERTIFICATE-----
MIIDbTCCAlWgAwIBAgIQdYBJN1uRDwdcqpUUnL6MZDANBgkqhkiG9w0BAQsFADAS
MRAwDgYDVQQDDAdSb290LUNBMB4XDTI2MDcyMjIzMjMwNFoXDTI4MTAyNDIzMjMw
NFowGDEWMBQGA1UEAwwNcmFkaXVzLXNlcnZlcjCCASIwDQYJKoZIhvcNAQEBBQAD
ggEPADCCAQoCggEBAObUXg6lTppLIjl/m3CRmOkt+M5NcUrBDp5T4zd6AnfHlGA6
nED3b79OIxKuRoZOpr+bW5tOK5oGyt8SjBZpqsVUe+ayJsQR86fhYaGOEXB2bOdo
nvWn6H2JOKGshGYYNeurEFrH6aUDse40jO/aXX8lfBmTL1am5m2cCC2LBFkp7oWL
8IXkggrhy19pvpXWt9CqUzogq8Ts8xj9faQisIh3aXGZoS7ZVWVp0SaIpc42qdBn
Zfd+kxihS+6/ndjSzYgdRt7AgqcJ8Ryl2b7F+YCYgcjSvmNeGSNVsxrAOG6nMKyt
HbL6RjppoG/ej01qa1nO5AlqxyoaN80bjojzbCECAwEAAaOBuDCBtTAJBgNVHRME
AjAAMB0GA1UdDgQWBBQhI407taRuLIqQU6nr7vc6tTxwkDBNBgNVHSMERjBEgBSm
4NGjNMBoYYyLlMCQKH2umNhbi6EWpBQwEjEQMA4GA1UEAwwHUm9vdC1DQYIUGoMu
aEZDKwNyipQLOtYLD4WqOiEwEwYDVR0lBAwwCgYIKwYBBQUHAwEwCwYDVR0PBAQD
AgWgMBgGA1UdEQQRMA+CDXJhZGl1cy1zZXJ2ZXIwDQYJKoZIhvcNAQELBQADggEB
AFygiJfdKjMP5mxN/YW+67a4a5UmuP9PINE2Yy5Ykutb6aBOOFdrtQUDnxZs+ThG
sEM38ND/b3/rnYLHryT9KivmuVvnbTDyOMvF46CEpRhc3hC9kCxy6G11g/qkhN5b
LmX7LRbrvSscfFVDtWmkruXxMGVp6fMDhIoDWg0XcK8QYlFZI0uOd8//7WhDkGIy
srUxNuqGtqzZv27PF6SsOb2yScEgR68G8FnQT/L/Sy0qaurDNpzD0thr5NwGDzV7
pKMdxdu1ZueTjMdTUJLuAhxnrBXmMYe7CjZFsjPkiPpDrVuTV5NCL9PvNoM/rT8v
VuGjUmYMH/16Af0pV19D0jo=
-----END CERTIFICATE-----
