Certificate:
    Data:
        Version: 3 (0x2)
        Serial Number:
            b8:ea:e7:31:cc:fb:3d:74:1f:a3:c2:f7:cf:db:9f:24
        Signature Algorithm: sha256WithRSAEncryption
        Issuer: CN=Root-CA
        Validity
            Not Before: Jul 23 21:56:46 2026 GMT
            Not After : Oct 25 21:56:46 2028 GMT
        Subject: CN=alice
        Subject Public Key Info:
            Public Key Algorithm: rsaEncryption
                Public-Key: (2048 bit)
                Modulus:
                    00:c7:74:6b:86:b1:c4:9b:97:b5:92:c8:c6:0f:5a:
                    c0:fa:dc:ba:23:90:59:85:4e:5c:d0:25:e7:e3:74:
                    7e:3b:db:52:e2:ab:a4:7b:84:1c:ae:6a:f1:2d:11:
                    d5:4f:8c:e4:d4:c1:72:65:14:0e:4b:32:5e:1d:fa:
                    df:43:5f:f9:10:7d:69:56:88:a6:76:bf:85:e7:39:
                    2c:f1:c2:2e:30:0c:78:fb:7b:fc:35:49:9f:9a:59:
                    d1:bd:4e:b7:b0:fe:18:10:1f:35:a9:a0:7e:b7:5b:
                    7a:cb:33:25:1e:f8:0a:3b:d2:c9:a0:42:91:37:1b:
                    c9:cb:5e:19:f7:6e:ee:ac:9f:4e:ca:e4:ac:67:55:
                    f3:de:35:91:02:72:b5:a1:2a:63:1b:57:33:c6:5c:
                    5e:8e:18:8f:49:36:89:35:39:04:2d:d5:75:29:70:
                    3f:e2:b7:16:ca:13:ba:d0:5e:e6:d6:e3:37:37:bf:
                    88:69:f7:60:30:3e:3a:aa:b9:4e:e5:9c:40:37:52:
                    66:b6:79:32:51:4a:48:00:10:bd:e0:2d:f0:8a:44:
                    10:1d:55:76:bb:fc:16:6c:57:73:69:0a:5a:3f:51:
                    19:48:99:16:56:1d:c7:1c:6f:88:77:e5:86:a5:0f:
                    17:77:05:1d:4f:d2:aa:b1:e4:80:ce:e7:36:d8:83:
                    0e:f9
                Exponent: 65537 (0x10001)
        X509v3 extensions:
            X509v3 Basic Constraints: 
                CA:FALSE
            X509v3 Subject Key Identifier: 
                A9:0B:60:49:AE:FA:75:0D:3A:08:3F:6E:EE:AD:76:8A:5E:93:FF:39
            X509v3 Authority Key Identifier: 
                keyid:A6:E0:D1:A3:34:C0:68:61:8C:8B:94:C0:90:28:7D:AE:98:D8:5B:8B
                DirName:/CN=Root-CA
                serial:1A:83:2E:68:46:43:2B:03:72:8A:94:0B:3A:D6:0B:0F:85:AA:3A:21
            X509v3 Extended Key Usage: 
                TLS Web Client Authentication
            X509v3 Key Usage: 
                Digital Signature
    Signature Algorithm: sha256WithRSAEncryption
    Signature Value:
        21:07:42:a6:6f:65:e4:87:e8:eb:fb:6e:d8:89:06:bc:9c:c1:
        79:93:9a:5b:7c:00:2d:97:93:69:f5:cc:d5:19:49:1a:2a:82:
        ea:ff:2b:08:57:a3:6d:15:07:8f:0a:f3:66:15:ea:66:c9:8a:
        c1:1d:6a:bc:de:ef:e6:15:c4:da:8c:a4:0d:0a:51:9a:51:b7:
        12:7b:8c:5c:77:f4:87:33:72:72:da:3c:6f:5b:c4:d0:4d:2b:
        c6:28:2c:3f:42:18:11:06:b1:69:0e:45:d1:20:b0:ff:22:f8:
        dd:67:31:87:61:73:98:0d:ea:e0:3c:28:b2:43:c3:9c:5b:1f:
        3b:69:71:ba:5c:4f:05:f2:79:26:51:b4:b9:b5:49:e5:e9:2a:
        19:7e:04:eb:bc:88:df:ec:af:f8:09:53:7d:24:a7:15:1c:e1:
        35:b1:51:3a:73:66:ba:a0:8d:8e:d4:d9:5f:6e:43:fe:76:c2:
        a7:31:2f:cd:1e:f8:29:6c:d7:bc:00:f1:3a:11:f9:fd:6f:df:
        50:ad:1c:96:ff:4f:64:5f:21:ba:51:b2:85:ab:4f:78:bf:f8:
        96:82:63:8a:9f:49:01:04:38:34:2d:86:7c:c7:83:03:80:72:
        ee:c4:7e:fa:3c:22:da:6d:6d:71:f8:37:8d:d2:13:8c:59:9f:
        a4:f1:7a:85
-----BEGIN CERTIFICATE-----
MIIDTDCCAjSgAwIBAgIRALjq5zHM+z10H6PC98/bnyQwDQYJKoZIhvcNAQELBQAw
EjEQMA4GA1UEAwwHUm9vdC1DQTAeFw0yNjA3MjMyMTU2NDZaFw0yODEwMjUyMTU2
NDZaMBAxDjAMBgNVBAMMBWFsaWNlMIIBIjANBgkqhkiG9w0BAQEFAAOCAQ8AMIIB
CgKCAQEAx3RrhrHEm5e1ksjGD1rA+ty6I5BZhU5c0CXn43R+O9tS4quke4Qcrmrx
LRHVT4zk1MFyZRQOSzJeHfrfQ1/5EH1pVoimdr+F5zks8cIuMAx4+3v8NUmfmlnR
vU63sP4YEB81qaB+t1t6yzMlHvgKO9LJoEKRNxvJy14Z927urJ9OyuSsZ1Xz3jWR
AnK1oSpjG1czxlxejhiPSTaJNTkELdV1KXA/4rcWyhO60F7m1uM3N7+IafdgMD46
qrlO5ZxAN1JmtnkyUUpIABC94C3wikQQHVV2u/wWbFdzaQpaP1EZSJkWVh3HHG+I
d+WGpQ8XdwUdT9KqseSAzuc22IMO+QIDAQABo4GeMIGbMAkGA1UdEwQCMAAwHQYD
VR0OBBYEFKkLYEmu+nUNOgg/bu6tdopek/85ME0GA1UdIwRGMESAFKbg0aM0wGhh
jIuUwJAofa6Y2FuLoRakFDASMRAwDgYDVQQDDAdSb290LUNBghQagy5oRkMrA3KK
lAs61gsPhao6ITATBgNVHSUEDDAKBggrBgEFBQcDAjALBgNVHQ8EBAMCB4AwDQYJ
KoZIhvcNAQELBQADggEBACEHQqZvZeSH6Ov7btiJBrycwXmTmlt8AC2Xk2n1zNUZ
SRoqgur/KwhXo20VB48K82YV6mbJisEdarze7+YVxNqMpA0KUZpRtxJ7jFx39Icz
cnLaPG9bxNBNK8YoLD9CGBEGsWkORdEgsP8i+N1nMYdhc5gN6uA8KLJDw5xbHztp
cbpcTwXyeSZRtLm1SeXpKhl+BOu8iN/sr/gJU30kpxUc4TWxUTpzZrqgjY7U2V9u
Q/52wqcxL80e+Cls17wA8ToR+f1v31CtHJb/T2RfIbpRsoWrT3i/+JaCY4qfSQEE
ODQthnzHgwOAcu7Efvo8ItptbXH4N43SE4xZn6TxeoU=
-----END CERTIFICATE-----
