Certificate:
    Data:
        Version: 3 (0x2)
        Serial Number:
            fd:9e:29:d8:cc:3e:bd:01:01:3f:42:58:a1:44:e5:d5
        Signature Algorithm: sha256WithRSAEncryption
        Issuer: CN=Root-CA
        Validity
            Not Before: Jul 22 23:23:58 2026 GMT
            Not After : Oct 24 23:23:58 2028 GMT
        Subject: CN=employee1
        Subject Public Key Info:
            Public Key Algorithm: rsaEncryption
                Public-Key: (2048 bit)
                Modulus:
                    00:cf:25:37:ce:76:d9:d8:09:0a:0a:40:1d:a6:b6:
                    65:e5:33:e2:cd:20:8e:d3:f4:ad:ae:20:a2:bc:09:
                    00:5d:49:2e:98:6c:2a:b1:46:e0:3b:97:ea:ba:a9:
                    45:a5:18:af:16:dd:da:02:c3:31:ba:a0:5c:5d:76:
                    a3:67:2c:76:93:fd:25:a7:49:53:fa:a6:08:c1:5b:
                    8f:46:e0:71:0e:f3:fc:df:72:4a:98:3e:8d:e6:74:
                    74:39:21:1d:f1:cb:30:53:d0:f0:2f:bf:2e:a6:e9:
                    fb:ae:b4:b8:58:d6:8f:dd:81:b5:e9:90:5d:25:11:
                    2c:45:1b:42:d5:da:8d:0f:ec:13:72:4f:cf:1a:44:
                    01:37:68:0a:48:a8:28:0b:ba:93:12:45:12:ef:65:
                    e0:8c:71:cd:1e:02:a7:11:42:20:b4:62:1d:ca:6c:
                    da:bb:70:ba:65:6f:31:59:cb:51:07:b9:f5:49:9e:
                    38:d0:cd:07:be:5e:98:66:ce:61:f0:f3:c8:4c:ae:
                    5f:f8:90:24:18:5c:4b:18:7a:78:c0:89:95:9a:5d:
                    1f:46:65:d5:0e:df:22:a6:d9:32:69:e4:67:c3:33:
                    a4:f9:ca:13:8f:af:fb:18:d3:a2:77:e0:c9:d6:ed:
                    99:87:50:ee:57:f3:e9:bc:7f:39:a6:50:e4:0f:85:
                    3b:bf
                Exponent: 65537 (0x10001)
        X509v3 extensions:
            X509v3 Basic Constraints: 
                CA:FALSE
            X509v3 Subject Key Identifier: 
                EC:B5:C6:20:AD:46:BB:58:C2:F4:F9:99:C7:54:42:50:32:8F:20:35
            X509v3 Authority Key Identifier: 
                keyid:A6:E0:D1:A3:34:C0:68:61:8C:8B:94:C0:90:28:7D:AE:98:D8:5B:8B
                DirName:/CN=Root-CA
                serial:1A:83:2E:68:46:43:2B:03:72:8A:94:0B:3A:D6:0B:0F:85:AA:3A:21
            X509v3 Extended Key Usage: 
                TLS Web Client Authentication
            X509v3 Key Usage: 
                Digital Signature
    Signature Algorithm: sha256WithRSAEncryption
    Signature Value:
        4d:aa:f1:c8:68:cb:5f:40:e1:15:81:bd:6d:b8:ee:f6:79:55:
        c8:00:4a:74:19:56:e8:0f:95:aa:3a:65:83:1c:af:a7:56:8e:
        5b:1e:cd:1c:9b:d1:42:d4:d2:ee:56:51:24:89:7a:79:24:74:
        5b:ea:5f:67:6f:94:57:8f:7a:b5:9d:8b:d4:c7:16:61:3c:87:
        7a:86:08:9a:18:67:f5:06:95:f9:62:f3:cb:e8:0d:a5:21:31:
        fe:d6:10:d5:8e:0a:25:e0:12:a3:f5:55:c6:fa:9e:47:fc:88:
        16:d9:b1:5c:72:d1:5e:7d:be:4e:e6:a6:0d:e0:8e:1c:c0:3c:
        9b:6d:63:cd:8a:05:a9:0e:26:bf:2b:17:be:4e:2e:20:3a:97:
        43:83:6d:2d:61:41:7f:0d:19:50:a6:08:3e:80:65:13:65:01:
        18:fe:42:db:72:70:63:94:fa:30:6f:2e:d8:91:a4:36:e4:a6:
        87:cd:df:ac:4e:06:27:2a:d6:57:d6:0e:eb:55:f8:98:7f:1f:
        b2:3a:d7:69:f9:39:29:6f:71:02:4e:7a:22:71:14:10:f1:4a:
        f7:97:e0:48:15:01:f6:1d:45:3e:df:a5:58:bf:d7:97:9b:c6:
        ab:b8:8f:ea:97:50:c9:07:e6:ae:0f:35:80:74:41:bc:c3:4d:
        e5:89:6c:fa
-----BEGIN CERTIFICATE-----
MIIDUDCCAjigAwIBAgIRAP2eKdjMPr0BAT9CWKFE5dUwDQYJKoZIhvcNAQELBQAw
EjEQMA4GA1UEAwwHUm9vdC1DQTAeFw0yNjA3MjIyMzIzNThaFw0yODEwMjQyMzIz
NThaMBQxEjAQBgNVBAMMCWVtcGxveWVlMTCCASIwDQYJKoZIhvcNAQEBBQADggEP
ADCCAQoCggEBAM8lN8522dgJCgpAHaa2ZeUz4s0gjtP0ra4gorwJAF1JLphsKrFG
4DuX6rqpRaUYrxbd2gLDMbqgXF12o2csdpP9JadJU/qmCMFbj0bgcQ7z/N9ySpg+
jeZ0dDkhHfHLMFPQ8C+/Lqbp+660uFjWj92BtemQXSURLEUbQtXajQ/sE3JPzxpE
ATdoCkioKAu6kxJFEu9l4IxxzR4CpxFCILRiHcps2rtwumVvMVnLUQe59UmeONDN
B75emGbOYfDzyEyuX/iQJBhcSxh6eMCJlZpdH0Zl1Q7fIqbZMmnkZ8MzpPnKE4+v
+xjTonfgydbtmYdQ7lfz6bx/OaZQ5A+FO78CAwEAAaOBnjCBmzAJBgNVHRMEAjAA
MB0GA1UdDgQWBBTstcYgrUa7WML0+ZnHVEJQMo8gNTBNBgNVHSMERjBEgBSm4NGj
NMBoYYyLlMCQKH2umNhbi6EWpBQwEjEQMA4GA1UEAwwHUm9vdC1DQYIUGoMuaEZD
KwNyipQLOtYLD4WqOiEwEwYDVR0lBAwwCgYIKwYBBQUHAwIwCwYDVR0PBAQDAgeA
MA0GCSqGSIb3DQEBCwUAA4IBAQBNqvHIaMtfQOEVgb1tuO72eVXIAEp0GVboD5Wq
OmWDHK+nVo5bHs0cm9FC1NLuVlEkiXp5JHRb6l9nb5RXj3q1nYvUxxZhPId6hgia
GGf1BpX5YvPL6A2lITH+1hDVjgol4BKj9VXG+p5H/IgW2bFcctFefb5O5qYN4I4c
wDybbWPNigWpDia/Kxe+Ti4gOpdDg20tYUF/DRlQpgg+gGUTZQEY/kLbcnBjlPow
by7YkaQ25KaHzd+sTgYnKtZX1g7rVfiYfx+yOtdp+Tkpb3ECTnoicRQQ8Ur3l+BI
FQH2HUU+36VYv9eXm8aruI/ql1DJB+auDzWAdEG8w03liWz6
-----END CERTIFICATE-----
